target datalayout = "e-m:e-p270:32:32-p271:32:32-p272:64:64-i64:64-i128:128-f80:128-n8:16:32:64-S128"
target triple = "x86_64-pc-linux-gnu"

%struct.FFBitStreamFilter = type { %struct.AVBitStreamFilter, i32, ptr, ptr, ptr, ptr }
%struct.AVBitStreamFilter = type { ptr, ptr, ptr }
%struct.AVBSFContext = type { ptr, ptr, ptr, ptr, ptr, %struct.AVRational, %struct.AVRational }
%struct.AVRational = type { i32, i32 }
%struct.FFBSFContext = type { %struct.AVBSFContext, ptr, i32 }
%struct.AVPacket = type { ptr, i64, i64, ptr, i32, i32, i32, ptr, i32, i64, i64, ptr, ptr, %struct.AVRational }
%struct.BSFListContext = type { ptr, ptr, i32, i32, ptr }

@.str.4 = private unnamed_addr constant [38 x i8] c"A non-NULL packet sent after an EOF.\0A\00", align 1

; Function Attrs: alwaysinline nounwind uwtable
define internal ptr @ff_bsf(ptr noundef %0) #2 {
  %2 = alloca ptr, align 8
  store ptr %0, ptr %2, align 8, !tbaa !27
  %3 = load ptr, ptr %2, align 8, !tbaa !27
  ret ptr %3
}

; Function Attrs: alwaysinline nounwind uwtable
define internal ptr @ffbsfcontext(ptr noundef %0) #2 {
  %2 = alloca ptr, align 8
  store ptr %0, ptr %2, align 8, !tbaa !10
  %3 = load ptr, ptr %2, align 8, !tbaa !10
  ret ptr %3
}

; Function Attrs: nounwind uwtable
define i32 @av_bsf_send_packet(ptr noundef %0, ptr noundef %1) #0 {
  %3 = alloca i32, align 4
  %4 = alloca ptr, align 8
  %5 = alloca ptr, align 8
  %6 = alloca ptr, align 8
  %7 = alloca i32, align 4
  %8 = alloca i32, align 4
  store ptr %0, ptr %4, align 8, !tbaa !10
  store ptr %1, ptr %5, align 8, !tbaa !57
  call void @llvm.lifetime.start.p0(i64 8, ptr %6) #6
  %9 = load ptr, ptr %4, align 8, !tbaa !10
  %10 = call ptr @ffbsfcontext(ptr noundef %9)
  store ptr %10, ptr %6, align 8, !tbaa !12
  call void @llvm.lifetime.start.p0(i64 4, ptr %7) #6
  %11 = load ptr, ptr %5, align 8, !tbaa !57
  %12 = icmp ne ptr %11, null
  br i1 %12, label %13, label %23

13:                                               ; preds = %2
  %14 = load ptr, ptr %5, align 8, !tbaa !57
  %15 = getelementptr inbounds nuw %struct.AVPacket, ptr %14, i32 0, i32 3
  %16 = load ptr, ptr %15, align 8, !tbaa !58
  %17 = icmp ne ptr %16, null
  br i1 %17, label %31, label %18

18:                                               ; preds = %13
  %19 = load ptr, ptr %5, align 8, !tbaa !57
  %20 = getelementptr inbounds nuw %struct.AVPacket, ptr %19, i32 0, i32 8
  %21 = load i32, ptr %20, align 8, !tbaa !61
  %22 = icmp ne i32 %21, 0
  br i1 %22, label %31, label %23

23:                                               ; preds = %18, %2
  %24 = load ptr, ptr %5, align 8, !tbaa !57
  %25 = icmp ne ptr %24, null
  br i1 %25, label %26, label %28

26:                                               ; preds = %23
  %27 = load ptr, ptr %5, align 8, !tbaa !57
  call void @av_packet_unref(ptr noundef %27)
  br label %28

28:                                               ; preds = %26, %23
  %29 = load ptr, ptr %6, align 8, !tbaa !12
  %30 = getelementptr inbounds nuw %struct.FFBSFContext, ptr %29, i32 0, i32 2
  store i32 1, ptr %30, align 8, !tbaa !55
  store i32 0, ptr %3, align 4
  store i32 1, ptr %8, align 4
  br label %65

31:                                               ; preds = %18, %13
  %32 = load ptr, ptr %6, align 8, !tbaa !12
  %33 = getelementptr inbounds nuw %struct.FFBSFContext, ptr %32, i32 0, i32 2
  %34 = load i32, ptr %33, align 8, !tbaa !55
  %35 = icmp ne i32 %34, 0
  br i1 %35, label %36, label %38

36:                                               ; preds = %31
  %37 = load ptr, ptr %4, align 8, !tbaa !10
  call void (ptr, i32, ptr, ...) @av_log(ptr noundef %37, i32 noundef 16, ptr noundef @.str.4)
  store i32 -22, ptr %3, align 4
  store i32 1, ptr %8, align 4
  br label %65

38:                                               ; preds = %31
  %39 = load ptr, ptr %6, align 8, !tbaa !12
  %40 = getelementptr inbounds nuw %struct.FFBSFContext, ptr %39, i32 0, i32 1
  %41 = load ptr, ptr %40, align 8, !tbaa !34
  %42 = getelementptr inbounds nuw %struct.AVPacket, ptr %41, i32 0, i32 3
  %43 = load ptr, ptr %42, align 8, !tbaa !58
  %44 = icmp ne ptr %43, null
  br i1 %44, label %52, label %45

45:                                               ; preds = %38
  %46 = load ptr, ptr %6, align 8, !tbaa !12
  %47 = getelementptr inbounds nuw %struct.FFBSFContext, ptr %46, i32 0, i32 1
  %48 = load ptr, ptr %47, align 8, !tbaa !34
  %49 = getelementptr inbounds nuw %struct.AVPacket, ptr %48, i32 0, i32 8
  %50 = load i32, ptr %49, align 8, !tbaa !61
  %51 = icmp ne i32 %50, 0
  br i1 %51, label %52, label %53

52:                                               ; preds = %45, %38
  store i32 -11, ptr %3, align 4
  store i32 1, ptr %8, align 4
  br label %65

53:                                               ; preds = %45
  %54 = load ptr, ptr %5, align 8, !tbaa !57
  %55 = call i32 @av_packet_make_refcounted(ptr noundef %54)
  store i32 %55, ptr %7, align 4, !tbaa !31
  %56 = load i32, ptr %7, align 4, !tbaa !31
  %57 = icmp slt i32 %56, 0
  br i1 %57, label %58, label %60

58:                                               ; preds = %53
  %59 = load i32, ptr %7, align 4, !tbaa !31
  store i32 %59, ptr %3, align 4
  store i32 1, ptr %8, align 4
  br label %65

60:                                               ; preds = %53
  %61 = load ptr, ptr %6, align 8, !tbaa !12
  %62 = getelementptr inbounds nuw %struct.FFBSFContext, ptr %61, i32 0, i32 1
  %63 = load ptr, ptr %62, align 8, !tbaa !34
  %64 = load ptr, ptr %5, align 8, !tbaa !57
  call void @av_packet_move_ref(ptr noundef %63, ptr noundef %64)
  store i32 0, ptr %3, align 4
  store i32 1, ptr %8, align 4
  br label %65

65:                                               ; preds = %60, %58, %52, %36, %28
  call void @llvm.lifetime.end.p0(i64 4, ptr %7) #6
  call void @llvm.lifetime.end.p0(i64 8, ptr %6) #6
  %66 = load i32, ptr %3, align 4
  ret i32 %66
}

; Function Attrs: nounwind uwtable
define i32 @av_bsf_receive_packet(ptr noundef %0, ptr noundef %1) #0 {
  %3 = alloca ptr, align 8
  %4 = alloca ptr, align 8
  store ptr %0, ptr %3, align 8, !tbaa !10
  store ptr %1, ptr %4, align 8, !tbaa !57
  %5 = load ptr, ptr %3, align 8, !tbaa !10
  %6 = getelementptr inbounds nuw %struct.AVBSFContext, ptr %5, i32 0, i32 1
  %7 = load ptr, ptr %6, align 8, !tbaa !21
  %8 = call ptr @ff_bsf(ptr noundef %7)
  %9 = getelementptr inbounds nuw %struct.FFBitStreamFilter, ptr %8, i32 0, i32 3
  %10 = load ptr, ptr %9, align 8, !tbaa !62
  %11 = load ptr, ptr %3, align 8, !tbaa !10
  %12 = load ptr, ptr %4, align 8, !tbaa !57
  %13 = call i32 %10(ptr noundef %11, ptr noundef %12)
  ret i32 %13
}

; Function Attrs: nounwind uwtable
define i32 @ff_bsf_get_packet_ref(ptr noundef %0, ptr noundef %1) #0 {
  %3 = alloca i32, align 4
  %4 = alloca ptr, align 8
  %5 = alloca ptr, align 8
  %6 = alloca ptr, align 8
  %7 = alloca i32, align 4
  store ptr %0, ptr %4, align 8, !tbaa !10
  store ptr %1, ptr %5, align 8, !tbaa !57
  call void @llvm.lifetime.start.p0(i64 8, ptr %6) #6
  %8 = load ptr, ptr %4, align 8, !tbaa !10
  %9 = call ptr @ffbsfcontext(ptr noundef %8)
  store ptr %9, ptr %6, align 8, !tbaa !12
  %10 = load ptr, ptr %6, align 8, !tbaa !12
  %11 = getelementptr inbounds nuw %struct.FFBSFContext, ptr %10, i32 0, i32 2
  %12 = load i32, ptr %11, align 8, !tbaa !55
  %13 = icmp ne i32 %12, 0
  br i1 %13, label %14, label %15

14:                                               ; preds = %2
  store i32 -541478725, ptr %3, align 4
  store i32 1, ptr %7, align 4
  br label %35

15:                                               ; preds = %2
  %16 = load ptr, ptr %6, align 8, !tbaa !12
  %17 = getelementptr inbounds nuw %struct.FFBSFContext, ptr %16, i32 0, i32 1
  %18 = load ptr, ptr %17, align 8, !tbaa !34
  %19 = getelementptr inbounds nuw %struct.AVPacket, ptr %18, i32 0, i32 3
  %20 = load ptr, ptr %19, align 8, !tbaa !58
  %21 = icmp ne ptr %20, null
  br i1 %21, label %30, label %22

22:                                               ; preds = %15
  %23 = load ptr, ptr %6, align 8, !tbaa !12
  %24 = getelementptr inbounds nuw %struct.FFBSFContext, ptr %23, i32 0, i32 1
  %25 = load ptr, ptr %24, align 8, !tbaa !34
  %26 = getelementptr inbounds nuw %struct.AVPacket, ptr %25, i32 0, i32 8
  %27 = load i32, ptr %26, align 8, !tbaa !61
  %28 = icmp ne i32 %27, 0
  br i1 %28, label %30, label %29

29:                                               ; preds = %22
  store i32 -11, ptr %3, align 4
  store i32 1, ptr %7, align 4
  br label %35

30:                                               ; preds = %22, %15
  %31 = load ptr, ptr %5, align 8, !tbaa !57
  %32 = load ptr, ptr %6, align 8, !tbaa !12
  %33 = getelementptr inbounds nuw %struct.FFBSFContext, ptr %32, i32 0, i32 1
  %34 = load ptr, ptr %33, align 8, !tbaa !34
  call void @av_packet_move_ref(ptr noundef %31, ptr noundef %34)
  store i32 0, ptr %3, align 4
  store i32 1, ptr %7, align 4
  br label %35

35:                                               ; preds = %30, %29, %14
  call void @llvm.lifetime.end.p0(i64 8, ptr %6) #6
  %36 = load i32, ptr %3, align 4
  ret i32 %36
}

; Function Attrs: nounwind uwtable
define internal i32 @bsf_list_filter(ptr noundef %0, ptr noundef %1) #0 {
  %3 = alloca i32, align 4
  %4 = alloca ptr, align 8
  %5 = alloca ptr, align 8
  %6 = alloca ptr, align 8
  %7 = alloca i32, align 4
  %8 = alloca i32, align 4
  %9 = alloca i32, align 4
  store ptr %0, ptr %4, align 8, !tbaa !10
  store ptr %1, ptr %5, align 8, !tbaa !57
  call void @llvm.lifetime.start.p0(i64 8, ptr %6) #6
  %10 = load ptr, ptr %4, align 8, !tbaa !10
  %11 = getelementptr inbounds nuw %struct.AVBSFContext, ptr %10, i32 0, i32 2
  %12 = load ptr, ptr %11, align 8, !tbaa !14
  store ptr %12, ptr %6, align 8, !tbaa !81
  call void @llvm.lifetime.start.p0(i64 4, ptr %7) #6
  call void @llvm.lifetime.start.p0(i64 4, ptr %8) #6
  store i32 0, ptr %8, align 4, !tbaa !31
  %13 = load ptr, ptr %6, align 8, !tbaa !81
  %14 = getelementptr inbounds nuw %struct.BSFListContext, ptr %13, i32 0, i32 2
  %15 = load i32, ptr %14, align 8, !tbaa !85
  %16 = icmp ne i32 %15, 0
  br i1 %16, label %21, label %17

17:                                               ; preds = %2
  %18 = load ptr, ptr %4, align 8, !tbaa !10
  %19 = load ptr, ptr %5, align 8, !tbaa !57
  %20 = call i32 @ff_bsf_get_packet_ref(ptr noundef %18, ptr noundef %19)
  store i32 %20, ptr %3, align 4
  store i32 1, ptr %9, align 4
  br label %114

21:                                               ; preds = %2
  br label %22

22:                                               ; preds = %113, %55, %21
  br label %23

23:                                               ; preds = %22
  %24 = load ptr, ptr %6, align 8, !tbaa !81
  %25 = getelementptr inbounds nuw %struct.BSFListContext, ptr %24, i32 0, i32 3
  %26 = load i32, ptr %25, align 4, !tbaa !91
  %27 = icmp ne i32 %26, 0
  br i1 %27, label %28, label %41

28:                                               ; preds = %23
  %29 = load ptr, ptr %6, align 8, !tbaa !81
  %30 = getelementptr inbounds nuw %struct.BSFListContext, ptr %29, i32 0, i32 1
  %31 = load ptr, ptr %30, align 8, !tbaa !83
  %32 = load ptr, ptr %6, align 8, !tbaa !81
  %33 = getelementptr inbounds nuw %struct.BSFListContext, ptr %32, i32 0, i32 3
  %34 = load i32, ptr %33, align 4, !tbaa !91
  %35 = sub i32 %34, 1
  %36 = zext i32 %35 to i64
  %37 = getelementptr inbounds nuw ptr, ptr %31, i64 %36
  %38 = load ptr, ptr %37, align 8, !tbaa !10
  %39 = load ptr, ptr %5, align 8, !tbaa !57
  %40 = call i32 @av_bsf_receive_packet(ptr noundef %38, ptr noundef %39)
  store i32 %40, ptr %7, align 4, !tbaa !31
  br label %45

41:                                               ; preds = %23
  %42 = load ptr, ptr %4, align 8, !tbaa !10
  %43 = load ptr, ptr %5, align 8, !tbaa !57
  %44 = call i32 @ff_bsf_get_packet_ref(ptr noundef %42, ptr noundef %43)
  store i32 %44, ptr %7, align 4, !tbaa !31
  br label %45

45:                                               ; preds = %41, %28
  %46 = load i32, ptr %7, align 4, !tbaa !31
  %47 = icmp eq i32 %46, -11
  br i1 %47, label %48, label %60

48:                                               ; preds = %45
  %49 = load ptr, ptr %6, align 8, !tbaa !81
  %50 = getelementptr inbounds nuw %struct.BSFListContext, ptr %49, i32 0, i32 3
  %51 = load i32, ptr %50, align 4, !tbaa !91
  %52 = icmp ne i32 %51, 0
  br i1 %52, label %55, label %53

53:                                               ; preds = %48
  %54 = load i32, ptr %7, align 4, !tbaa !31
  store i32 %54, ptr %3, align 4
  store i32 1, ptr %9, align 4
  br label %114

55:                                               ; preds = %48
  %56 = load ptr, ptr %6, align 8, !tbaa !81
  %57 = getelementptr inbounds nuw %struct.BSFListContext, ptr %56, i32 0, i32 3
  %58 = load i32, ptr %57, align 4, !tbaa !91
  %59 = add i32 %58, -1
  store i32 %59, ptr %57, align 4, !tbaa !91
  br label %22

60:                                               ; preds = %45
  %61 = load i32, ptr %7, align 4, !tbaa !31
  %62 = icmp eq i32 %61, -541478725
  br i1 %62, label %63, label %64

63:                                               ; preds = %60
  store i32 1, ptr %8, align 4, !tbaa !31
  br label %70

64:                                               ; preds = %60
  %65 = load i32, ptr %7, align 4, !tbaa !31
  %66 = icmp slt i32 %65, 0
  br i1 %66, label %67, label %69

67:                                               ; preds = %64
  %68 = load i32, ptr %7, align 4, !tbaa !31
  store i32 %68, ptr %3, align 4
  store i32 1, ptr %9, align 4
  br label %114

69:                                               ; preds = %64
  br label %70

70:                                               ; preds = %69, %63
  br label %71

71:                                               ; preds = %70
  %72 = load ptr, ptr %6, align 8, !tbaa !81
  %73 = getelementptr inbounds nuw %struct.BSFListContext, ptr %72, i32 0, i32 3
  %74 = load i32, ptr %73, align 4, !tbaa !91
  %75 = load ptr, ptr %6, align 8, !tbaa !81
  %76 = getelementptr inbounds nuw %struct.BSFListContext, ptr %75, i32 0, i32 2
  %77 = load i32, ptr %76, align 8, !tbaa !85
  %78 = icmp ult i32 %74, %77
  br i1 %78, label %79, label %107

79:                                               ; preds = %71
  %80 = load ptr, ptr %6, align 8, !tbaa !81
  %81 = getelementptr inbounds nuw %struct.BSFListContext, ptr %80, i32 0, i32 1
  %82 = load ptr, ptr %81, align 8, !tbaa !83
  %83 = load ptr, ptr %6, align 8, !tbaa !81
  %84 = getelementptr inbounds nuw %struct.BSFListContext, ptr %83, i32 0, i32 3
  %85 = load i32, ptr %84, align 4, !tbaa !91
  %86 = zext i32 %85 to i64
  %87 = getelementptr inbounds nuw ptr, ptr %82, i64 %86
  %88 = load ptr, ptr %87, align 8, !tbaa !10
  %89 = load i32, ptr %8, align 4, !tbaa !31
  %90 = icmp ne i32 %89, 0
  br i1 %90, label %91, label %92

91:                                               ; preds = %79
  br label %94

92:                                               ; preds = %79
  %93 = load ptr, ptr %5, align 8, !tbaa !57
  br label %94

94:                                               ; preds = %92, %91
  %95 = phi ptr [ null, %91 ], [ %93, %92 ]
  %96 = call i32 @av_bsf_send_packet(ptr noundef %88, ptr noundef %95)
  store i32 %96, ptr %7, align 4, !tbaa !31
  %97 = load i32, ptr %7, align 4, !tbaa !31
  %98 = icmp slt i32 %97, 0
  br i1 %98, label %99, label %102

99:                                               ; preds = %94
  %100 = load ptr, ptr %5, align 8, !tbaa !57
  call void @av_packet_unref(ptr noundef %100)
  %101 = load i32, ptr %7, align 4, !tbaa !31
  store i32 %101, ptr %3, align 4
  store i32 1, ptr %9, align 4
  br label %114

102:                                              ; preds = %94
  %103 = load ptr, ptr %6, align 8, !tbaa !81
  %104 = getelementptr inbounds nuw %struct.BSFListContext, ptr %103, i32 0, i32 3
  %105 = load i32, ptr %104, align 4, !tbaa !91
  %106 = add i32 %105, 1
  store i32 %106, ptr %104, align 4, !tbaa !91
  store i32 0, ptr %8, align 4, !tbaa !31
  br label %113

107:                                              ; preds = %71
  %108 = load i32, ptr %8, align 4, !tbaa !31
  %109 = icmp ne i32 %108, 0
  br i1 %109, label %110, label %112

110:                                              ; preds = %107
  %111 = load i32, ptr %7, align 4, !tbaa !31
  store i32 %111, ptr %3, align 4
  store i32 1, ptr %9, align 4
  br label %114

112:                                              ; preds = %107
  store i32 0, ptr %3, align 4
  store i32 1, ptr %9, align 4
  br label %114

113:                                              ; preds = %102
  br label %22

114:                                              ; preds = %112, %110, %99, %67, %53, %17
  call void @llvm.lifetime.end.p0(i64 4, ptr %8) #6
  call void @llvm.lifetime.end.p0(i64 4, ptr %7) #6
  call void @llvm.lifetime.end.p0(i64 8, ptr %6) #6
  %115 = load i32, ptr %3, align 4
  ret i32 %115
}