; Function Attrs: nounwind uwtable
define internal i32 @bsf_list_filter(ptr noundef readonly captures(none) %0, ptr noundef %1) #0 {
  %3 = getelementptr inbounds nuw i8, ptr %0, i64 16
  %4 = load ptr, ptr %3, align 8, !tbaa !9
  %5 = getelementptr inbounds nuw i8, ptr %4, i64 16
  %6 = load i32, ptr %5, align 8, !tbaa !64
  %.not = icmp eq i32 %6, 0
  br i1 %.not, label %13, label %.preheader

.preheader:                                       ; preds = %2
  %7 = getelementptr inbounds nuw i8, ptr %4, i64 20
  %8 = getelementptr inbounds nuw i8, ptr %4, i64 8
  %9 = getelementptr inbounds nuw i8, ptr %0, i64 64
  %10 = getelementptr inbounds nuw i8, ptr %0, i64 56
  %.not.i4458 = icmp eq ptr %1, null
  %11 = getelementptr inbounds nuw i8, ptr %1, i64 24
  %12 = getelementptr inbounds nuw i8, ptr %1, i64 56
  %.pre = load i32, ptr %7, align 4, !tbaa !73
  br label %25

13:                                               ; preds = %2
  %14 = getelementptr inbounds nuw i8, ptr %0, i64 64
  %15 = load i32, ptr %14, align 8, !tbaa !47
  %.not.i = icmp eq i32 %15, 0
  br i1 %.not.i, label %16, label %ff_bsf_get_packet_ref.exit

16:                                               ; preds = %13
  %17 = getelementptr inbounds nuw i8, ptr %0, i64 56
  %18 = load ptr, ptr %17, align 8, !tbaa !27
  %19 = getelementptr inbounds nuw i8, ptr %18, i64 24
  %20 = load ptr, ptr %19, align 8, !tbaa !49
  %.not6.i = icmp eq ptr %20, null
  br i1 %.not6.i, label %21, label %24

21:                                               ; preds = %16
  %22 = getelementptr inbounds nuw i8, ptr %18, i64 56
  %23 = load i32, ptr %22, align 8, !tbaa !52
  %.not7.i = icmp eq i32 %23, 0
  br i1 %.not7.i, label %ff_bsf_get_packet_ref.exit, label %24

24:                                               ; preds = %21, %16
  tail call void @av_packet_move_ref(ptr noundef %1, ptr noundef nonnull %18) #6
  br label %ff_bsf_get_packet_ref.exit

25:                                               ; preds = %.backedge, %.preheader
  %26 = phi i32 [ %storemerge, %.backedge ], [ %.pre, %.preheader ]
  %.not34 = icmp eq i32 %26, 0
  br i1 %.not34, label %27, label %ff_bsf_get_packet_ref.exit43

27:                                               ; preds = %25
  %28 = load i32, ptr %9, align 8, !tbaa !47
  %.not.i39.not = icmp eq i32 %28, 0
  br i1 %.not.i39.not, label %29, label %ff_bsf_get_packet_ref.exit43.thread.thread

29:                                               ; preds = %27
  %30 = load ptr, ptr %10, align 8, !tbaa !27
  %31 = getelementptr inbounds nuw i8, ptr %30, i64 24
  %32 = load ptr, ptr %31, align 8, !tbaa !49
  %.not6.i41 = icmp eq ptr %32, null
  br i1 %.not6.i41, label %33, label %36

33:                                               ; preds = %29
  %34 = getelementptr inbounds nuw i8, ptr %30, i64 56
  %35 = load i32, ptr %34, align 8, !tbaa !52
  %.not7.i42 = icmp eq i32 %35, 0
  br i1 %.not7.i42, label %ff_bsf_get_packet_ref.exit, label %36

36:                                               ; preds = %33, %29
  tail call void @av_packet_move_ref(ptr noundef %1, ptr noundef nonnull %30) #6
  br label %ff_bsf_get_packet_ref.exit43.thread.thread

ff_bsf_get_packet_ref.exit43:                     ; preds = %25
  %37 = load ptr, ptr %8, align 8, !tbaa !62
  %38 = add i32 %26, -1
  %39 = zext i32 %38 to i64
  %40 = getelementptr inbounds nuw ptr, ptr %37, i64 %39
  %41 = load ptr, ptr %40, align 8, !tbaa !4
  %42 = getelementptr inbounds nuw i8, ptr %41, i64 8
  %43 = load ptr, ptr %42, align 8, !tbaa !16
  %44 = getelementptr inbounds nuw i8, ptr %43, i64 40
  %45 = load ptr, ptr %44, align 8, !tbaa !53
  %46 = tail call i32 %45(ptr noundef %41, ptr noundef %1) #6
  %47 = icmp eq i32 %46, -11
  br i1 %47, label %ff_bsf_get_packet_ref.exit43.thread48, label %ff_bsf_get_packet_ref.exit43.thread

ff_bsf_get_packet_ref.exit43.thread48:            ; preds = %ff_bsf_get_packet_ref.exit43
  %.pre69 = load i32, ptr %7, align 4, !tbaa !73
  %.not38 = icmp eq i32 %.pre69, 0
  br i1 %.not38, label %ff_bsf_get_packet_ref.exit, label %48

48:                                               ; preds = %ff_bsf_get_packet_ref.exit43.thread48
  %49 = add i32 %.pre69, -1
  br label %.backedge

.backedge:                                        ; preds = %48, %av_bsf_send_packet.exit
  %storemerge = phi i32 [ %49, %48 ], [ %83, %av_bsf_send_packet.exit ]
  store i32 %storemerge, ptr %7, align 4, !tbaa !73
  br label %25

ff_bsf_get_packet_ref.exit43.thread:              ; preds = %ff_bsf_get_packet_ref.exit43
  %.not36.not = icmp eq i32 %46, -541478725
  %50 = icmp slt i32 %46, 0
  %or.cond = xor i1 %.not36.not, %50
  br i1 %or.cond, label %ff_bsf_get_packet_ref.exit, label %ff_bsf_get_packet_ref.exit43.thread.thread

ff_bsf_get_packet_ref.exit43.thread.thread:       ; preds = %36, %27, %ff_bsf_get_packet_ref.exit43.thread
  %.not36.not57 = phi i1 [ %.not36.not, %ff_bsf_get_packet_ref.exit43.thread ], [ true, %27 ], [ false, %36 ]
  %.0294756 = phi i32 [ %46, %ff_bsf_get_packet_ref.exit43.thread ], [ -541478725, %27 ], [ 0, %36 ]
  %51 = load i32, ptr %7, align 4, !tbaa !73
  %52 = load i32, ptr %5, align 8, !tbaa !64
  %53 = icmp ult i32 %51, %52
  br i1 %53, label %54, label %84

54:                                               ; preds = %ff_bsf_get_packet_ref.exit43.thread.thread
  %55 = load ptr, ptr %8, align 8, !tbaa !62
  %56 = zext i32 %51 to i64
  %57 = getelementptr inbounds nuw ptr, ptr %55, i64 %56
  %58 = load ptr, ptr %57, align 8, !tbaa !4
  %.not.i44 = or i1 %.not.i4458, %.not36.not57
  br i1 %.not.i44, label %.critedge.i, label %59

59:                                               ; preds = %54
  %60 = load ptr, ptr %11, align 8, !tbaa !49
  %.not18.i = icmp eq ptr %60, null
  br i1 %.not18.i, label %61, label %65

61:                                               ; preds = %59
  %62 = load i32, ptr %12, align 8, !tbaa !52
  %.not19.i = icmp eq i32 %62, 0
  br i1 %.not19.i, label %63, label %65

63:                                               ; preds = %61
  tail call void @av_packet_unref(ptr noundef nonnull %1) #6
  br label %.critedge.i

.critedge.i:                                      ; preds = %63, %54
  %64 = getelementptr inbounds nuw i8, ptr %58, i64 64
  store i32 1, ptr %64, align 8, !tbaa !47
  br label %av_bsf_send_packet.exit

65:                                               ; preds = %61, %59
  %66 = getelementptr inbounds nuw i8, ptr %58, i64 64
  %67 = load i32, ptr %66, align 8, !tbaa !47
  %.not20.i = icmp eq i32 %67, 0
  br i1 %.not20.i, label %69, label %68

68:                                               ; preds = %65
  tail call void (ptr, i32, ptr, ...) @av_log(ptr noundef nonnull %58, i32 noundef 16, ptr noundef nonnull @.str.4) #6
  br label %.loopexit

69:                                               ; preds = %65
  %70 = getelementptr inbounds nuw i8, ptr %58, i64 56
  %71 = load ptr, ptr %70, align 8, !tbaa !27
  %72 = getelementptr inbounds nuw i8, ptr %71, i64 24
  %73 = load ptr, ptr %72, align 8, !tbaa !49
  %.not21.i = icmp eq ptr %73, null
  br i1 %.not21.i, label %74, label %.loopexit

74:                                               ; preds = %69
  %75 = getelementptr inbounds nuw i8, ptr %71, i64 56
  %76 = load i32, ptr %75, align 8, !tbaa !52
  %.not22.i = icmp eq i32 %76, 0
  br i1 %.not22.i, label %77, label %.loopexit

77:                                               ; preds = %74
  %78 = tail call i32 @av_packet_make_refcounted(ptr noundef nonnull %1) #6
  %79 = icmp slt i32 %78, 0
  br i1 %79, label %.loopexit, label %80

80:                                               ; preds = %77
  %81 = load ptr, ptr %70, align 8, !tbaa !27
  tail call void @av_packet_move_ref(ptr noundef %81, ptr noundef nonnull %1) #6
  br label %av_bsf_send_packet.exit

.loopexit:                                        ; preds = %74, %69, %77, %68
  %.0.i45.ph = phi i32 [ -22, %68 ], [ -11, %74 ], [ -11, %69 ], [ %78, %77 ]
  tail call void @av_packet_unref(ptr noundef nonnull %1) #6
  br label %ff_bsf_get_packet_ref.exit

av_bsf_send_packet.exit:                          ; preds = %80, %.critedge.i
  %82 = load i32, ptr %7, align 4, !tbaa !73
  %83 = add i32 %82, 1
  br label %.backedge

84:                                               ; preds = %ff_bsf_get_packet_ref.exit43.thread.thread
  %.029. = select i1 %.not36.not57, i32 %.0294756, i32 0
  br label %ff_bsf_get_packet_ref.exit

ff_bsf_get_packet_ref.exit:                       ; preds = %33, %ff_bsf_get_packet_ref.exit43.thread, %ff_bsf_get_packet_ref.exit43.thread48, %24, %21, %13, %84, %.loopexit
  %.030 = phi i32 [ %.0.i45.ph, %.loopexit ], [ %.029., %84 ], [ 0, %24 ], [ -541478725, %13 ], [ -11, %21 ], [ -11, %33 ], [ %46, %ff_bsf_get_packet_ref.exit43.thread ], [ -11, %ff_bsf_get_packet_ref.exit43.thread48 ]
  ret i32 %.030
}